; Function Attrs: mustprogress uwtable
define void @_ZNK5arrow13ExtensionType6layoutEv(ptr dead_on_unwind noalias writable sret(%"struct.arrow::DataTypeLayout") align 8 %0, ptr noundef nonnull readonly align 8 captures(none) dereferenceable(88) %1) unnamed_addr #1 align 2 {
  %3 = getelementptr inbounds nuw i8, ptr %1, i64 72
  %4 = load ptr, ptr %3, align 8, !tbaa !32
  %5 = load ptr, ptr %4, align 8, !tbaa !38
  %6 = getelementptr inbounds nuw i8, ptr %5, i64 48
  %7 = load ptr, ptr %6, align 8
  tail call void %7(ptr dead_on_unwind writable sret(%"struct.arrow::DataTypeLayout") align 8 %0, ptr noundef nonnull align 8 dereferenceable(72) %4)
  ret void
}